target datalayout = "e-m:e-p270:32:32-p271:32:32-p272:64:64-i64:64-i128:128-f80:128-n8:16:32:64-S128"
target triple = "x86_64-pc-linux-gnu"

%struct.rb_control_frame_struct = type { ptr, ptr, ptr, i64, ptr, ptr, ptr }
%struct.rb_cref_struct = type { i64, i64, i64, ptr, %struct.rb_scope_visi_struct }
%struct.rb_scope_visi_struct = type { i8, [3 x i8] }
%struct.RBasic = type { i64, i64 }
%struct.rb_execution_context_struct = type { ptr, i64, ptr, ptr, i32, i32, ptr, ptr, ptr, i64, i64, i64, ptr, i64, ptr, i64, i64, i8, i8, i64, %struct.anon.0 }
%struct.anon.0 = type { ptr, ptr, i64, [1 x %struct.__jmp_buf_tag] }
%struct.__jmp_buf_tag = type { [8 x i64], i32, %struct.__sigset_t }
%struct.__sigset_t = type { [16 x i64] }
%struct.RClass = type { %struct.RBasic, i64, ptr }
%struct.rb_method_definition_struct = type { i64, %union.anon, i64, i64 }
%union.anon = type { %struct.rb_method_cfunc_struct }
%struct.rb_method_cfunc_struct = type { ptr, ptr, i32 }
%struct.rb_method_entry_struct = type { i64, i64, ptr, i64, i64 }
%struct.rb_method_refined_struct = type { ptr }

@ruby_current_ec = hidden thread_local global ptr null, align 8

; Function Attrs: inlinehint nounwind sspstrong uwtable
define internal i64 @VM_ENV_FLAGS(ptr noundef %0, i64 noundef %1) #2 {
  %3 = alloca ptr, align 8
  %4 = alloca i64, align 8
  %5 = alloca i64, align 8
  store ptr %0, ptr %3, align 8, !tbaa !7
  store i64 %1, ptr %4, align 8, !tbaa !31
  call void @llvm.lifetime.start.p0(i64 8, ptr %5) #21
  %6 = load ptr, ptr %3, align 8, !tbaa !7
  %7 = getelementptr i64, ptr %6, i64 0
  %8 = load i64, ptr %7, align 8, !tbaa !31
  store i64 %8, ptr %5, align 8, !tbaa !31
  %9 = load i64, ptr %5, align 8, !tbaa !31
  %10 = load i64, ptr %4, align 8, !tbaa !31
  %11 = and i64 %9, %10
  call void @llvm.lifetime.end.p0(i64 8, ptr %5) #21
  ret i64 %11
}

; Function Attrs: inlinehint nounwind sspstrong uwtable
define internal i32 @VM_FRAME_CFRAME_P(ptr noundef %0) #2 {
  %2 = alloca ptr, align 8
  %3 = alloca i32, align 4
  store ptr %0, ptr %2, align 8, !tbaa !14
  call void @llvm.lifetime.start.p0(i64 4, ptr %3) #21
  %4 = load ptr, ptr %2, align 8, !tbaa !14
  %5 = getelementptr inbounds nuw %struct.rb_control_frame_struct, ptr %4, i32 0, i32 4
  %6 = load ptr, ptr %5, align 8, !tbaa !16
  %7 = call i64 @VM_ENV_FLAGS(ptr noundef %6, i64 noundef 128)
  %8 = icmp ne i64 %7, 0
  %9 = zext i1 %8 to i32
  store i32 %9, ptr %3, align 4, !tbaa !24
  %10 = load i32, ptr %3, align 4, !tbaa !24
  call void @llvm.lifetime.end.p0(i64 4, ptr %3) #21
  ret i32 %10
}

; Function Attrs: inlinehint nounwind sspstrong uwtable
define internal ptr @RUBY_VM_END_CONTROL_FRAME(ptr noundef %0) #2 {
  %2 = alloca ptr, align 8
  store ptr %0, ptr %2, align 8, !tbaa !33
  %3 = load ptr, ptr %2, align 8, !tbaa !33
  %4 = getelementptr inbounds nuw %struct.rb_execution_context_struct, ptr %3, i32 0, i32 0
  %5 = load ptr, ptr %4, align 8, !tbaa !508
  %6 = load ptr, ptr %2, align 8, !tbaa !33
  %7 = getelementptr inbounds nuw %struct.rb_execution_context_struct, ptr %6, i32 0, i32 1
  %8 = load i64, ptr %7, align 8, !tbaa !548
  %9 = getelementptr i64, ptr %5, i64 %8
  ret ptr %9
}

; Function Attrs: inlinehint nounwind sspstrong uwtable
define internal i32 @VM_FRAME_RUBYFRAME_P(ptr noundef %0) #2 {
  %2 = alloca ptr, align 8
  store ptr %0, ptr %2, align 8, !tbaa !14
  %3 = load ptr, ptr %2, align 8, !tbaa !14
  %4 = call i32 @VM_FRAME_CFRAME_P(ptr noundef %3)
  %5 = icmp ne i32 %4, 0
  %6 = xor i1 %5, true
  %7 = zext i1 %6 to i32
  ret i32 %7
}

; Function Attrs: inlinehint nounwind sspstrong uwtable
define internal i32 @RUBY_VM_CONTROL_FRAME_STACK_OVERFLOW_P(ptr noundef %0, ptr noundef %1) #2 {
  %3 = alloca ptr, align 8
  %4 = alloca ptr, align 8
  store ptr %0, ptr %3, align 8, !tbaa !33
  store ptr %1, ptr %4, align 8, !tbaa !14
  %5 = load ptr, ptr %3, align 8, !tbaa !33
  %6 = call ptr @RUBY_VM_END_CONTROL_FRAME(ptr noundef %5)
  %7 = load ptr, ptr %4, align 8, !tbaa !14
  %8 = icmp ugt ptr %6, %7
  %9 = xor i1 %8, true
  %10 = zext i1 %9 to i32
  ret i32 %10
}

; Function Attrs: inlinehint nounwind sspstrong uwtable
define internal i64 @RCLASS_SUPER(i64 noundef %0) #2 {
  %2 = alloca i64, align 8
  store i64 %0, ptr %2, align 8, !tbaa !31
  %3 = load i64, ptr %2, align 8, !tbaa !31
  %4 = inttoptr i64 %3 to ptr
  %5 = getelementptr inbounds nuw %struct.RClass, ptr %4, i32 0, i32 1
  %6 = load i64, ptr %5, align 8, !tbaa !175
  ret i64 %6
}

; Function Attrs: inlinehint nounwind sspstrong uwtable
define internal ptr @lookup_method_table(i64 noundef %0, i64 noundef %1) #2 {
  %3 = alloca ptr, align 8
  %4 = alloca i64, align 8
  %5 = alloca i64, align 8
  %6 = alloca i64, align 8
  %7 = alloca ptr, align 8
  %8 = alloca i32, align 4
  store i64 %0, ptr %4, align 8, !tbaa !31
  store i64 %1, ptr %5, align 8, !tbaa !31
  call void @llvm.lifetime.start.p0(i64 8, ptr %6) #21
  call void @llvm.lifetime.start.p0(i64 8, ptr %7) #21
  %9 = load i64, ptr %4, align 8, !tbaa !31
  %10 = inttoptr i64 %9 to ptr
  %11 = getelementptr inbounds nuw %struct.RClass, ptr %10, i32 0, i32 2
  %12 = load ptr, ptr %11, align 8, !tbaa !271
  store ptr %12, ptr %7, align 8, !tbaa !152
  %13 = load ptr, ptr %7, align 8, !tbaa !152
  %14 = load i64, ptr %5, align 8, !tbaa !31
  %15 = call i32 @rb_id_table_lookup(ptr noundef %13, i64 noundef %14, ptr noundef %6)
  %16 = icmp ne i32 %15, 0
  br i1 %16, label %17, label %20

17:                                               ; preds = %2
  %18 = load i64, ptr %6, align 8, !tbaa !31
  %19 = inttoptr i64 %18 to ptr
  store ptr %19, ptr %3, align 8
  store i32 1, ptr %8, align 4
  br label %21

20:                                               ; preds = %2
  store ptr null, ptr %3, align 8
  store i32 1, ptr %8, align 4
  br label %21

21:                                               ; preds = %20, %17
  call void @llvm.lifetime.end.p0(i64 8, ptr %7) #21
  call void @llvm.lifetime.end.p0(i64 8, ptr %6) #21
  %22 = load ptr, ptr %3, align 8
  ret ptr %22
}

; Function Attrs: nounwind sspstrong uwtable
define hidden ptr @rb_vm_get_ruby_level_next_cfp(ptr noundef %0, ptr noundef %1) #0 {
  %3 = alloca ptr, align 8
  %4 = alloca ptr, align 8
  %5 = alloca ptr, align 8
  store ptr %0, ptr %4, align 8, !tbaa !33
  store ptr %1, ptr %5, align 8, !tbaa !14
  br label %6

6:                                                ; preds = %18, %2
  %7 = load ptr, ptr %4, align 8, !tbaa !33
  %8 = load ptr, ptr %5, align 8, !tbaa !14
  %9 = call i32 @RUBY_VM_CONTROL_FRAME_STACK_OVERFLOW_P(ptr noundef %7, ptr noundef %8)
  %10 = icmp ne i32 %9, 0
  %11 = xor i1 %10, true
  br i1 %11, label %12, label %21

12:                                               ; preds = %6
  %13 = load ptr, ptr %5, align 8, !tbaa !14
  %14 = call i32 @VM_FRAME_RUBYFRAME_P(ptr noundef %13)
  %15 = icmp ne i32 %14, 0
  br i1 %15, label %16, label %18

16:                                               ; preds = %12
  %17 = load ptr, ptr %5, align 8, !tbaa !14
  store ptr %17, ptr %3, align 8
  br label %22

18:                                               ; preds = %12
  %19 = load ptr, ptr %5, align 8, !tbaa !14
  %20 = getelementptr %struct.rb_control_frame_struct, ptr %19, i64 1
  store ptr %20, ptr %5, align 8, !tbaa !14
  br label %6, !llvm.loop !322

21:                                               ; preds = %6
  store ptr null, ptr %3, align 8
  br label %22

22:                                               ; preds = %21, %16
  %23 = load ptr, ptr %3, align 8
  ret ptr %23
}

; Function Attrs: inlinehint nounwind sspstrong uwtable
define internal ptr @search_method0(i64 noundef %0, i64 noundef %1, ptr noundef %2, i1 noundef zeroext %3) #2 {
  %5 = alloca i64, align 8
  %6 = alloca i64, align 8
  %7 = alloca ptr, align 8
  %8 = alloca i8, align 1
  %9 = alloca ptr, align 8
  store i64 %0, ptr %5, align 8, !tbaa !31
  store i64 %1, ptr %6, align 8, !tbaa !31
  store ptr %2, ptr %7, align 8, !tbaa !7
  %10 = zext i1 %3 to i8
  store i8 %10, ptr %8, align 1, !tbaa !55
  call void @llvm.lifetime.start.p0(i64 8, ptr %9) #21
  store ptr null, ptr %9, align 8, !tbaa !176
  br label %11

11:                                               ; preds = %41, %4
  %12 = load i64, ptr %5, align 8, !tbaa !31
  %13 = icmp ne i64 %12, 0
  br i1 %13, label %14, label %44

14:                                               ; preds = %11
  %15 = load i64, ptr %5, align 8, !tbaa !31
  %16 = load i64, ptr %6, align 8, !tbaa !31
  %17 = call ptr @lookup_method_table(i64 noundef %15, i64 noundef %16)
  store ptr %17, ptr %9, align 8, !tbaa !176
  %18 = icmp ne ptr %17, null
  br i1 %18, label %19, label %40

19:                                               ; preds = %14
  %20 = load i8, ptr %8, align 1, !tbaa !55, !range !121, !noundef !122
  %21 = trunc i8 %20 to i1
  br i1 %21, label %22, label %38

22:                                               ; preds = %19
  %23 = load ptr, ptr %9, align 8, !tbaa !176
  %24 = getelementptr inbounds nuw %struct.rb_method_entry_struct, ptr %23, i32 0, i32 2
  %25 = load ptr, ptr %24, align 8, !tbaa !309
  %26 = load i64, ptr %25, align 8
  %27 = and i64 %26, 15
  %28 = trunc i64 %27 to i32
  %29 = icmp ne i32 %28, 11
  br i1 %29, label %38, label %30

30:                                               ; preds = %22
  %31 = load ptr, ptr %9, align 8, !tbaa !176
  %32 = getelementptr inbounds nuw %struct.rb_method_entry_struct, ptr %31, i32 0, i32 2
  %33 = load ptr, ptr %32, align 8, !tbaa !309
  %34 = getelementptr inbounds nuw %struct.rb_method_definition_struct, ptr %33, i32 0, i32 1
  %35 = getelementptr inbounds nuw %struct.rb_method_refined_struct, ptr %34, i32 0, i32 0
  %36 = load ptr, ptr %35, align 8, !tbaa !58
  %37 = icmp ne ptr %36, null
  br i1 %37, label %38, label %39

38:                                               ; preds = %30, %22, %19
  br label %44

39:                                               ; preds = %30
  br label %40

40:                                               ; preds = %39, %14
  br label %41

41:                                               ; preds = %40
  %42 = load i64, ptr %5, align 8, !tbaa !31
  %43 = call i64 @RCLASS_SUPER(i64 noundef %42)
  store i64 %43, ptr %5, align 8, !tbaa !31
  br label %11, !llvm.loop !750

44:                                               ; preds = %38, %11
  %45 = load ptr, ptr %7, align 8, !tbaa !7
  %46 = icmp ne ptr %45, null
  br i1 %46, label %47, label %50

47:                                               ; preds = %44
  %48 = load i64, ptr %5, align 8, !tbaa !31
  %49 = load ptr, ptr %7, align 8, !tbaa !7
  store i64 %48, ptr %49, align 8, !tbaa !31
  br label %50

50:                                               ; preds = %47, %44
  %51 = load ptr, ptr %9, align 8, !tbaa !176
  %52 = icmp eq ptr %51, null
  br i1 %52, label %53, label %54

53:                                               ; preds = %50
  br label %54

54:                                               ; preds = %53, %50
  %55 = load ptr, ptr %9, align 8, !tbaa !176
  call void @llvm.lifetime.end.p0(i64 8, ptr %9) #21
  ret ptr %55
}

; Function Attrs: nounwind sspstrong uwtable
define internal ptr @vm_ec_cref(ptr noundef %0) #0 {
  %2 = alloca ptr, align 8
  %3 = alloca ptr, align 8
  %4 = alloca ptr, align 8
  %5 = alloca i32, align 4
  store ptr %0, ptr %3, align 8, !tbaa !33
  call void @llvm.lifetime.start.p0(i64 8, ptr %4) #21
  %6 = load ptr, ptr %3, align 8, !tbaa !33
  %7 = load ptr, ptr %3, align 8, !tbaa !33
  %8 = getelementptr inbounds nuw %struct.rb_execution_context_struct, ptr %7, i32 0, i32 2
  %9 = load ptr, ptr %8, align 8, !tbaa !76
  %10 = call ptr @rb_vm_get_ruby_level_next_cfp(ptr noundef %6, ptr noundef %9)
  store ptr %10, ptr %4, align 8, !tbaa !14
  %11 = load ptr, ptr %4, align 8, !tbaa !14
  %12 = icmp eq ptr %11, null
  br i1 %12, label %13, label %14

13:                                               ; preds = %1
  store ptr null, ptr %2, align 8
  store i32 1, ptr %5, align 4
  br label %19

14:                                               ; preds = %1
  %15 = load ptr, ptr %4, align 8, !tbaa !14
  %16 = getelementptr inbounds nuw %struct.rb_control_frame_struct, ptr %15, i32 0, i32 4
  %17 = load ptr, ptr %16, align 8, !tbaa !16
  %18 = call ptr @vm_get_cref(ptr noundef %17)
  store ptr %18, ptr %2, align 8
  store i32 1, ptr %5, align 4
  br label %19

19:                                               ; preds = %14, %13
  call void @llvm.lifetime.end.p0(i64 8, ptr %4) #21
  %20 = load ptr, ptr %2, align 8
  ret ptr %20
}

; Function Attrs: inlinehint nounwind sspstrong uwtable
define internal ptr @rb_current_execution_context(i1 noundef zeroext %0) #2 {
  %2 = alloca i8, align 1
  %3 = alloca ptr, align 8
  %4 = zext i1 %0 to i8
  store i8 %4, ptr %2, align 1, !tbaa !55
  call void @llvm.lifetime.start.p0(i64 8, ptr %3) #21
  %5 = call align 8 ptr @llvm.threadlocal.address.p0(ptr align 8 @ruby_current_ec)
  %6 = load ptr, ptr %5, align 8, !tbaa !33
  store ptr %6, ptr %3, align 8, !tbaa !33
  %7 = load ptr, ptr %3, align 8, !tbaa !33
  call void @llvm.lifetime.end.p0(i64 8, ptr %3) #21
  ret ptr %7
}

; Function Attrs: inlinehint nounwind sspstrong uwtable
define internal ptr @search_method(i64 noundef %0, i64 noundef %1, ptr noundef %2) #2 {
  %4 = alloca i64, align 8
  %5 = alloca i64, align 8
  %6 = alloca ptr, align 8
  store i64 %0, ptr %4, align 8, !tbaa !31
  store i64 %1, ptr %5, align 8, !tbaa !31
  store ptr %2, ptr %6, align 8, !tbaa !7
  %7 = load i64, ptr %4, align 8, !tbaa !31
  %8 = load i64, ptr %5, align 8, !tbaa !31
  %9 = load ptr, ptr %6, align 8, !tbaa !7
  %10 = call ptr @search_method0(i64 noundef %7, i64 noundef %8, ptr noundef %9, i1 noundef zeroext false)
  ret ptr %10
}

; Function Attrs: inlinehint nounwind sspstrong uwtable
define internal i64 @CREF_REFINEMENTS(ptr noundef %0) #2 {
  %2 = alloca ptr, align 8
  store ptr %0, ptr %2, align 8, !tbaa !20
  %3 = load ptr, ptr %2, align 8, !tbaa !20
  %4 = getelementptr inbounds nuw %struct.rb_cref_struct, ptr %3, i32 0, i32 1
  %5 = load i64, ptr %4, align 8, !tbaa !32
  ret i64 %5
}

; Function Attrs: nounwind sspstrong uwtable
define hidden ptr @rb_vm_cref() #0 {
  %1 = alloca ptr, align 8
  call void @llvm.lifetime.start.p0(i64 8, ptr %1) #21
  %2 = call ptr @rb_current_execution_context(i1 noundef zeroext true)
  store ptr %2, ptr %1, align 8, !tbaa !33
  %3 = load ptr, ptr %1, align 8, !tbaa !33
  %4 = call ptr @vm_ec_cref(ptr noundef %3)
  call void @llvm.lifetime.end.p0(i64 8, ptr %1) #21
  ret ptr %4
}

; Function Attrs: nounwind sspstrong uwtable
define internal ptr @search_method_protect(i64 noundef %0, i64 noundef %1, ptr noundef %2) #0 {
  %4 = alloca ptr, align 8
  %5 = alloca i64, align 8
  %6 = alloca i64, align 8
  %7 = alloca ptr, align 8
  %8 = alloca ptr, align 8
  %9 = alloca i32, align 4
  store i64 %0, ptr %5, align 8, !tbaa !31
  store i64 %1, ptr %6, align 8, !tbaa !31
  store ptr %2, ptr %7, align 8, !tbaa !7
  call void @llvm.lifetime.start.p0(i64 8, ptr %8) #21
  %10 = load i64, ptr %5, align 8, !tbaa !31
  %11 = load i64, ptr %6, align 8, !tbaa !31
  %12 = load ptr, ptr %7, align 8, !tbaa !7
  %13 = call ptr @search_method(i64 noundef %10, i64 noundef %11, ptr noundef %12)
  store ptr %13, ptr %8, align 8, !tbaa !176
  %14 = load ptr, ptr %8, align 8, !tbaa !176
  %15 = icmp ne ptr %14, null
  br i1 %15, label %16, label %31

16:                                               ; preds = %3
  %17 = load ptr, ptr %8, align 8, !tbaa !176
  %18 = getelementptr inbounds nuw %struct.rb_method_entry_struct, ptr %17, i32 0, i32 2
  %19 = load ptr, ptr %18, align 8, !tbaa !309
  %20 = icmp ne ptr %19, null
  br i1 %20, label %21, label %31

21:                                               ; preds = %16
  %22 = load ptr, ptr %8, align 8, !tbaa !176
  %23 = getelementptr inbounds nuw %struct.rb_method_entry_struct, ptr %22, i32 0, i32 2
  %24 = load ptr, ptr %23, align 8, !tbaa !309
  %25 = load i64, ptr %24, align 8
  %26 = and i64 %25, 15
  %27 = trunc i64 %26 to i32
  %28 = icmp eq i32 %27, 7
  br i1 %28, label %31, label %29

29:                                               ; preds = %21
  %30 = load ptr, ptr %8, align 8, !tbaa !176
  store ptr %30, ptr %4, align 8
  store i32 1, ptr %9, align 4
  br label %32

31:                                               ; preds = %21, %16, %3
  store ptr null, ptr %4, align 8
  store i32 1, ptr %9, align 4
  br label %32

32:                                               ; preds = %31, %29
  call void @llvm.lifetime.end.p0(i64 8, ptr %8) #21
  %33 = load ptr, ptr %4, align 8
  ret ptr %33
}

; Function Attrs: nounwind sspstrong uwtable
define internal ptr @method_entry_resolve_refinement(i64 noundef %0, i64 noundef %1, i32 noundef %2, ptr noundef %3) #0 {
  %5 = alloca i64, align 8
  %6 = alloca i64, align 8
  %7 = alloca i32, align 4
  %8 = alloca ptr, align 8
  %9 = alloca ptr, align 8
  %10 = alloca ptr, align 8
  %11 = alloca i64, align 8
  store i64 %0, ptr %5, align 8, !tbaa !31
  store i64 %1, ptr %6, align 8, !tbaa !31
  store i32 %2, ptr %7, align 4, !tbaa !24
  store ptr %3, ptr %8, align 8, !tbaa !7
  call void @llvm.lifetime.start.p0(i64 8, ptr %9) #21
  %12 = load i64, ptr %5, align 8, !tbaa !31
  %13 = load i64, ptr %6, align 8, !tbaa !31
  %14 = load ptr, ptr %8, align 8, !tbaa !7
  %15 = call ptr @search_method_protect(i64 noundef %12, i64 noundef %13, ptr noundef %14)
  store ptr %15, ptr %9, align 8, !tbaa !176
  %16 = load ptr, ptr %9, align 8, !tbaa !176
  %17 = icmp ne ptr %16, null
  br i1 %17, label %18, label %66

18:                                               ; preds = %4
  %19 = load ptr, ptr %9, align 8, !tbaa !176
  %20 = getelementptr inbounds nuw %struct.rb_method_entry_struct, ptr %19, i32 0, i32 2
  %21 = load ptr, ptr %20, align 8, !tbaa !309
  %22 = load i64, ptr %21, align 8
  %23 = and i64 %22, 15
  %24 = trunc i64 %23 to i32
  %25 = icmp eq i32 %24, 11
  br i1 %25, label %26, label %65

26:                                               ; preds = %18
  %27 = load i32, ptr %7, align 4, !tbaa !24
  %28 = icmp ne i32 %27, 0
  br i1 %28, label %29, label %43

29:                                               ; preds = %26
  call void @llvm.lifetime.start.p0(i64 8, ptr %10) #21
  %30 = call ptr @rb_vm_cref()
  store ptr %30, ptr %10, align 8, !tbaa !20
  call void @llvm.lifetime.start.p0(i64 8, ptr %11) #21
  %31 = load ptr, ptr %10, align 8, !tbaa !20
  %32 = icmp ne ptr %31, null
  br i1 %32, label %33, label %36

33:                                               ; preds = %29
  %34 = load ptr, ptr %10, align 8, !tbaa !20
  %35 = call i64 @CREF_REFINEMENTS(ptr noundef %34)
  br label %37

36:                                               ; preds = %29
  br label %37

37:                                               ; preds = %36, %33
  %38 = phi i64 [ %35, %33 ], [ 4, %36 ]
  store i64 %38, ptr %11, align 8, !tbaa !31
  %39 = load i64, ptr %11, align 8, !tbaa !31
  %40 = load ptr, ptr %9, align 8, !tbaa !176
  %41 = load ptr, ptr %8, align 8, !tbaa !7
  %42 = call ptr @resolve_refined_method(i64 noundef %39, ptr noundef %40, ptr noundef %41)
  store ptr %42, ptr %9, align 8, !tbaa !176
  call void @llvm.lifetime.end.p0(i64 8, ptr %11) #21
  call void @llvm.lifetime.end.p0(i64 8, ptr %10) #21
  br label %47

43:                                               ; preds = %26
  %44 = load ptr, ptr %9, align 8, !tbaa !176
  %45 = load ptr, ptr %8, align 8, !tbaa !7
  %46 = call ptr @resolve_refined_method(i64 noundef 4, ptr noundef %44, ptr noundef %45)
  store ptr %46, ptr %9, align 8, !tbaa !176
  br label %47

47:                                               ; preds = %43, %37
  %48 = load ptr, ptr %9, align 8, !tbaa !176
  %49 = icmp ne ptr %48, null
  br i1 %49, label %50, label %63

50:                                               ; preds = %47
  %51 = load ptr, ptr %9, align 8, !tbaa !176
  %52 = getelementptr inbounds nuw %struct.rb_method_entry_struct, ptr %51, i32 0, i32 2
  %53 = load ptr, ptr %52, align 8, !tbaa !309
  %54 = icmp ne ptr %53, null
  br i1 %54, label %55, label %63

55:                                               ; preds = %50
  %56 = load ptr, ptr %9, align 8, !tbaa !176
  %57 = getelementptr inbounds nuw %struct.rb_method_entry_struct, ptr %56, i32 0, i32 2
  %58 = load ptr, ptr %57, align 8, !tbaa !309
  %59 = load i64, ptr %58, align 8
  %60 = and i64 %59, 15
  %61 = trunc i64 %60 to i32
  %62 = icmp eq i32 %61, 7
  br i1 %62, label %63, label %64

63:                                               ; preds = %55, %50, %47
  store ptr null, ptr %9, align 8, !tbaa !176
  br label %64

64:                                               ; preds = %63, %55
  br label %65

65:                                               ; preds = %64, %18
  br label %66

66:                                               ; preds = %65, %4
  %67 = load ptr, ptr %9, align 8, !tbaa !176
  call void @llvm.lifetime.end.p0(i64 8, ptr %9) #21
  ret ptr %67
}