; Function Attrs: nounwind sspstrong uwtable
define internal fastcc ptr @method_entry_resolve_refinement(i64 noundef %0, i64 noundef %1, i32 noundef range(i32 0, 2) %2, ptr noundef captures(address_is_null) %3) unnamed_addr #2 {
  %5 = alloca i64, align 8
  %.not18.i.i.i = icmp eq i64 %0, 0
  br i1 %.not18.i.i.i, label %._crit_edge.i.i.i, label %.lr.ph.split.i.i.i

.lr.ph.split.i.i.i:                               ; preds = %4, %11
  %.01119.i.i.i = phi i64 [ %13, %11 ], [ %0, %4 ]
  call void @llvm.lifetime.start.p0(i64 8, ptr nonnull %5) #21
  %6 = inttoptr i64 %.01119.i.i.i to ptr
  %7 = getelementptr inbounds nuw i8, ptr %6, i64 24
  %8 = load ptr, ptr %7, align 8, !tbaa !336
  %9 = call i32 @rb_id_table_lookup(ptr noundef %8, i64 noundef %1, ptr noundef nonnull %5) #21
  %.not.i.i.i.i = icmp eq i32 %9, 0
  %10 = load i64, ptr %5, align 8
  call void @llvm.lifetime.end.p0(i64 8, ptr nonnull %5) #21
  %.not1440.i.i.i = icmp eq i64 %10, 0
  %.not14.i.i.i = select i1 %.not.i.i.i.i, i1 true, i1 %.not1440.i.i.i
  br i1 %.not14.i.i.i, label %11, label %._crit_edge.loopexit41.split.loop.exit.i.i.i

11:                                               ; preds = %.lr.ph.split.i.i.i
  %12 = getelementptr inbounds nuw i8, ptr %6, i64 16
  %13 = load i64, ptr %12, align 8, !tbaa !184
  %.not.i.i.i = icmp eq i64 %13, 0
  br i1 %.not.i.i.i, label %._crit_edge.i.i.i, label %.lr.ph.split.i.i.i, !llvm.loop !377

._crit_edge.loopexit41.split.loop.exit.i.i.i:     ; preds = %.lr.ph.split.i.i.i
  %14 = inttoptr i64 %10 to ptr
  br label %._crit_edge.i.i.i

._crit_edge.i.i.i:                                ; preds = %11, %._crit_edge.loopexit41.split.loop.exit.i.i.i, %4
  %.011.lcssa.i.i.i = phi i64 [ 0, %4 ], [ %.01119.i.i.i, %._crit_edge.loopexit41.split.loop.exit.i.i.i ], [ 0, %11 ]
  %.1.i.i.i = phi ptr [ null, %4 ], [ %14, %._crit_edge.loopexit41.split.loop.exit.i.i.i ], [ null, %11 ]
  %.not17.i.i.i = icmp eq ptr %3, null
  br i1 %.not17.i.i.i, label %search_method.exit.i, label %15

15:                                               ; preds = %._crit_edge.i.i.i
  store i64 %.011.lcssa.i.i.i, ptr %3, align 8, !tbaa !7
  br label %search_method.exit.i

search_method.exit.i:                             ; preds = %15, %._crit_edge.i.i.i
  %.not.i = icmp eq ptr %.1.i.i.i, null
  br i1 %.not.i, label %search_method_protect.exit.thread, label %16

16:                                               ; preds = %search_method.exit.i
  %17 = getelementptr inbounds nuw i8, ptr %.1.i.i.i, i64 16
  %18 = load ptr, ptr %17, align 8, !tbaa !350
  %.not9.i = icmp eq ptr %18, null
  br i1 %.not9.i, label %search_method_protect.exit.thread, label %19

19:                                               ; preds = %16
  %20 = load i64, ptr %18, align 8
  %21 = and i64 %20, 15
  switch i64 %21, label %search_method_protect.exit.thread.fold.split [
    i64 7, label %search_method_protect.exit.thread
    i64 11, label %22
  ]

22:                                               ; preds = %19
  %.not20 = icmp eq i32 %2, 0
  br i1 %.not20, label %rb_vm_cref.exit.thread, label %23

23:                                               ; preds = %22
  %24 = call align 8 ptr @llvm.threadlocal.address.p0(ptr align 8 @ruby_current_ec)
  %25 = load ptr, ptr %24, align 8, !tbaa !27
  %26 = getelementptr inbounds nuw i8, ptr %25, i64 16
  %27 = load ptr, ptr %26, align 8, !tbaa !66
  %.val.i.i.i = load ptr, ptr %25, align 8, !tbaa !130
  %28 = getelementptr i8, ptr %25, i64 8
  %.val8.i.i.i = load i64, ptr %28, align 8, !tbaa !131
  %29 = getelementptr i64, ptr %.val.i.i.i, i64 %.val8.i.i.i
  %.not910.i.i.i = icmp ugt ptr %29, %27
  br i1 %.not910.i.i.i, label %.lr.ph.i.i.i, label %rb_vm_cref.exit.thread

.lr.ph.i.i.i:                                     ; preds = %23, %32
  %.011.i.i.i = phi ptr [ %33, %32 ], [ %27, %23 ]
  %30 = getelementptr i8, ptr %.011.i.i.i, i64 32
  %.0.val.i.i.i = load ptr, ptr %30, align 8, !tbaa !13
  %.0.val.val.i.i.i = load i64, ptr %.0.val.i.i.i, align 8, !tbaa !7
  %31 = and i64 %.0.val.val.i.i.i, 128
  %.not7.not.i.i.i = icmp eq i64 %31, 0
  br i1 %.not7.not.i.i.i, label %34, label %32

32:                                               ; preds = %.lr.ph.i.i.i
  %33 = getelementptr i8, ptr %.011.i.i.i, i64 56
  %.not9.i.i.i = icmp ugt ptr %29, %33
  br i1 %.not9.i.i.i, label %.lr.ph.i.i.i, label %rb_vm_cref.exit.thread, !llvm.loop !322

34:                                               ; preds = %.lr.ph.i.i.i
  %35 = call fastcc ptr @vm_get_cref(ptr noundef nonnull %.0.val.i.i.i)
  %36 = getelementptr i8, ptr %35, i64 8
  %.val = load i64, ptr %36, align 8, !tbaa !25
  br label %rb_vm_cref.exit.thread

rb_vm_cref.exit.thread:                           ; preds = %32, %22, %34, %23
  %.sink = phi i64 [ %.val, %34 ], [ 4, %23 ], [ 4, %22 ], [ 4, %32 ]
  %37 = call fastcc ptr @resolve_refined_method(i64 noundef %.sink, ptr noundef nonnull %.1.i.i.i, ptr noundef %3)
  %.not22 = icmp eq ptr %37, null
  br i1 %.not22, label %45, label %38

38:                                               ; preds = %rb_vm_cref.exit.thread
  %39 = getelementptr inbounds nuw i8, ptr %37, i64 16
  %40 = load ptr, ptr %39, align 8, !tbaa !350
  %.not23 = icmp eq ptr %40, null
  br i1 %.not23, label %45, label %41

41:                                               ; preds = %38
  %42 = load i64, ptr %40, align 8
  %43 = and i64 %42, 15
  %44 = icmp eq i64 %43, 7
  br i1 %44, label %45, label %search_method_protect.exit.thread

45:                                               ; preds = %41, %38, %rb_vm_cref.exit.thread
  br label %search_method_protect.exit.thread

search_method_protect.exit.thread.fold.split:     ; preds = %19
  br label %search_method_protect.exit.thread

search_method_protect.exit.thread:                ; preds = %19, %search_method_protect.exit.thread.fold.split, %16, %search_method.exit.i, %45, %41
  %.0 = phi ptr [ null, %45 ], [ %37, %41 ], [ null, %search_method.exit.i ], [ null, %16 ], [ null, %19 ], [ %.1.i.i.i, %search_method_protect.exit.thread.fold.split ]
  ret ptr %.0
}